; Function Attrs: mustprogress nofree nounwind willreturn memory(write, argmem: readwrite) uwtable
define noundef nonnull align 8 dereferenceable(32) ptr @_ZN32pxrInternal_v0_24__pxrReserved__10GfRotation7SetQuatERKNS_7GfQuatdE(ptr noundef nonnull returned writeonly align 8 dereferenceable(32) %0, ptr nocapture noundef nonnull readonly align 8 dereferenceable(32) %1) local_unnamed_addr #1 align 2 {
  %3 = load double, ptr %1, align 8
  %4 = getelementptr inbounds i8, ptr %1, i64 8
  %5 = load double, ptr %4, align 8
  %6 = fmul double %5, %5
  %7 = tail call double @llvm.fmuladd.f64(double %3, double %3, double %6)
  %8 = getelementptr inbounds i8, ptr %1, i64 16
  %9 = load double, ptr %8, align 8
  %10 = tail call noundef double @llvm.fmuladd.f64(double %9, double %9, double %7)
  %sqrt.i = tail call noundef double @llvm.sqrt.f64(double %10)
  %11 = fcmp ogt double %sqrt.i, 1.000000e-10
  br i1 %11, label %12, label %38

12:                                               ; preds = %2
  %13 = getelementptr inbounds nuw i8, ptr %1, i64 24
  %14 = load double, ptr %13, align 8
  %15 = fcmp olt double %14, -1.000000e+00
  %16 = fcmp ogt double %14, 1.000000e+00
  %..i = select i1 %16, double 1.000000e+00, double %14
  %.0.i = select i1 %15, double -1.000000e+00, double %..i
  %17 = tail call double @acos(double noundef %.0.i) #19
  %18 = fdiv double 1.000000e+00, %sqrt.i
  %.sroa.0.0.copyload.i.i = load double, ptr %1, align 8, !noalias !4
  %.sroa.4.0.copyload.i.i = load double, ptr %4, align 8, !noalias !4
  %.sroa.6.0.copyload.i.i = load double, ptr %8, align 8, !noalias !4
  %19 = fmul double %18, %.sroa.0.0.copyload.i.i
  %20 = fmul double %18, %.sroa.4.0.copyload.i.i
  %21 = fmul double %18, %.sroa.6.0.copyload.i.i
  %22 = fmul double %17, 0x404CA5DC1A63C1F8
  %23 = fmul double %22, 2.000000e+00
  store double %19, ptr %0, align 8
  %.sroa.2.0..sroa_idx = getelementptr inbounds i8, ptr %0, i64 8
  store double %20, ptr %.sroa.2.0..sroa_idx, align 8
  %.sroa.3.0..sroa_idx = getelementptr inbounds i8, ptr %0, i64 16
  store double %21, ptr %.sroa.3.0..sroa_idx, align 8
  %24 = getelementptr inbounds nuw i8, ptr %0, i64 24
  store double %23, ptr %24, align 8
  %25 = fmul double %20, %20
  %26 = tail call double @llvm.fmuladd.f64(double %19, double %19, double %25)
  %27 = tail call noundef double @llvm.fmuladd.f64(double %21, double %21, double %26)
  %28 = fadd double %27, -1.000000e+00
  %29 = tail call double @llvm.fabs.f64(double %28)
  %30 = fcmp olt double %29, 1.000000e-10
  br i1 %30, label %_ZN32pxrInternal_v0_24__pxrReserved__10GfRotation12SetAxisAngleERKNS_7GfVec3dEd.exit, label %31

31:                                               ; preds = %12
  %sqrt.i.i.i = tail call noundef double @llvm.sqrt.f64(double %27)
  %32 = fcmp ogt double %sqrt.i.i.i, 1.000000e-10
  %33 = select i1 %32, double %sqrt.i.i.i, double 1.000000e-10
  %34 = fdiv double 1.000000e+00, %33
  %35 = fmul double %19, %34
  store double %35, ptr %0, align 8
  %36 = fmul double %20, %34
  store double %36, ptr %.sroa.2.0..sroa_idx, align 8
  %37 = fmul double %21, %34
  store double %37, ptr %.sroa.3.0..sroa_idx, align 8
  br label %_ZN32pxrInternal_v0_24__pxrReserved__10GfRotation12SetAxisAngleERKNS_7GfVec3dEd.exit

38:                                               ; preds = %2
  store double 1.000000e+00, ptr %0, align 8
  %39 = getelementptr inbounds i8, ptr %0, i64 8
  tail call void @llvm.memset.p0.i64(ptr noundef nonnull align 8 dereferenceable(24) %39, i8 0, i64 24, i1 false)
  br label %_ZN32pxrInternal_v0_24__pxrReserved__10GfRotation12SetAxisAngleERKNS_7GfVec3dEd.exit

_ZN32pxrInternal_v0_24__pxrReserved__10GfRotation12SetAxisAngleERKNS_7GfVec3dEd.exit: ; preds = %31, %12, %38
  ret ptr %0
}